target datalayout = "e-m:e-p270:32:32-p271:32:32-p272:64:64-i64:64-i128:128-f80:128-n8:16:32:64-S128"
target triple = "x86_64-pc-linux-gnu"

%struct.Qureg = type { i32, i32, i32, i64, i64, i32, i32, %struct.ComplexArray, %struct.ComplexArray, %struct.ComplexArray, ptr, ptr, ptr, ptr, ptr, ptr }
%struct.ComplexArray = type { ptr, ptr }
%struct.QuESTEnv = type { i32, i32, ptr, i32, ptr }

; Function Attrs: nounwind uwtable
define void @QuESTAssert(i32 noundef %0, i32 noundef %1, ptr noundef %2) #0 {
  %4 = alloca i32, align 4
  %5 = alloca i32, align 4
  %6 = alloca ptr, align 8
  store i32 %0, ptr %4, align 4, !tbaa !9
  store i32 %1, ptr %5, align 4, !tbaa !9
  store ptr %2, ptr %6, align 8, !tbaa !4
  %7 = load i32, ptr %4, align 4, !tbaa !9
  %8 = icmp ne i32 %7, 0
  br i1 %8, label %15, label %9

9:                                                ; preds = %3
  %10 = load i32, ptr %5, align 4, !tbaa !9
  %11 = zext i32 %10 to i64
  %12 = getelementptr inbounds nuw [92 x ptr], ptr @errorMessages, i64 0, i64 %11
  %13 = load ptr, ptr %12, align 8, !tbaa !4
  %14 = load ptr, ptr %6, align 8, !tbaa !4
  call void @invalidQuESTInputError(ptr noundef %13, ptr noundef %14)
  br label %15

15:                                               ; preds = %9, %3
  ret void
}

; Function Attrs: nounwind uwtable
define void @validateQuregGPUAllocation(ptr noundef %0, ptr noundef byval(%struct.QuESTEnv) align 8 %1, ptr noundef %2) #0 {
  %4 = alloca ptr, align 8
  %5 = alloca ptr, align 8
  %6 = alloca i32, align 4
  store ptr %0, ptr %4, align 8, !tbaa !59
  store ptr %2, ptr %5, align 8, !tbaa !4
  call void @llvm.lifetime.start.p0(i64 4, ptr %6) #7
  %7 = load ptr, ptr %4, align 8, !tbaa !59
  %8 = getelementptr inbounds nuw %struct.Qureg, ptr %7, i32 0, i32 9
  %9 = getelementptr inbounds nuw %struct.ComplexArray, ptr %8, i32 0, i32 0
  %10 = load ptr, ptr %9, align 8, !tbaa !66
  %11 = icmp ne ptr %10, null
  br i1 %11, label %12, label %28

12:                                               ; preds = %3
  %13 = load ptr, ptr %4, align 8, !tbaa !59
  %14 = getelementptr inbounds nuw %struct.Qureg, ptr %13, i32 0, i32 9
  %15 = getelementptr inbounds nuw %struct.ComplexArray, ptr %14, i32 0, i32 1
  %16 = load ptr, ptr %15, align 8, !tbaa !67
  %17 = icmp ne ptr %16, null
  br i1 %17, label %18, label %28

18:                                               ; preds = %12
  %19 = load ptr, ptr %4, align 8, !tbaa !59
  %20 = getelementptr inbounds nuw %struct.Qureg, ptr %19, i32 0, i32 10
  %21 = load ptr, ptr %20, align 8, !tbaa !68
  %22 = icmp ne ptr %21, null
  br i1 %22, label %23, label %28

23:                                               ; preds = %18
  %24 = load ptr, ptr %4, align 8, !tbaa !59
  %25 = getelementptr inbounds nuw %struct.Qureg, ptr %24, i32 0, i32 11
  %26 = load ptr, ptr %25, align 8, !tbaa !69
  %27 = icmp ne ptr %26, null
  br label %28

28:                                               ; preds = %23, %18, %12, %3
  %29 = phi i1 [ false, %18 ], [ false, %12 ], [ false, %3 ], [ %27, %23 ]
  %30 = zext i1 %29 to i32
  store i32 %30, ptr %6, align 4, !tbaa !9
  %31 = load i32, ptr %6, align 4, !tbaa !9
  %32 = icmp ne i32 %31, 0
  br i1 %32, label %57, label %33

33:                                               ; preds = %28
  %34 = load ptr, ptr %4, align 8, !tbaa !59
  call void @destroyQureg(ptr noundef byval(%struct.Qureg) align 8 %34, ptr noundef byval(%struct.QuESTEnv) align 8 %1)
  %35 = load ptr, ptr %4, align 8, !tbaa !59
  %36 = getelementptr inbounds nuw %struct.Qureg, ptr %35, i32 0, i32 7
  %37 = getelementptr inbounds nuw %struct.ComplexArray, ptr %36, i32 0, i32 0
  store ptr null, ptr %37, align 8, !tbaa !61
  %38 = load ptr, ptr %4, align 8, !tbaa !59
  %39 = getelementptr inbounds nuw %struct.Qureg, ptr %38, i32 0, i32 7
  %40 = getelementptr inbounds nuw %struct.ComplexArray, ptr %39, i32 0, i32 1
  store ptr null, ptr %40, align 8, !tbaa !62
  %41 = load ptr, ptr %4, align 8, !tbaa !59
  %42 = getelementptr inbounds nuw %struct.Qureg, ptr %41, i32 0, i32 8
  %43 = getelementptr inbounds nuw %struct.ComplexArray, ptr %42, i32 0, i32 0
  store ptr null, ptr %43, align 8, !tbaa !64
  %44 = load ptr, ptr %4, align 8, !tbaa !59
  %45 = getelementptr inbounds nuw %struct.Qureg, ptr %44, i32 0, i32 8
  %46 = getelementptr inbounds nuw %struct.ComplexArray, ptr %45, i32 0, i32 1
  store ptr null, ptr %46, align 8, !tbaa !65
  %47 = load ptr, ptr %4, align 8, !tbaa !59
  %48 = getelementptr inbounds nuw %struct.Qureg, ptr %47, i32 0, i32 9
  %49 = getelementptr inbounds nuw %struct.ComplexArray, ptr %48, i32 0, i32 0
  store ptr null, ptr %49, align 8, !tbaa !66
  %50 = load ptr, ptr %4, align 8, !tbaa !59
  %51 = getelementptr inbounds nuw %struct.Qureg, ptr %50, i32 0, i32 9
  %52 = getelementptr inbounds nuw %struct.ComplexArray, ptr %51, i32 0, i32 1
  store ptr null, ptr %52, align 8, !tbaa !67
  %53 = load ptr, ptr %4, align 8, !tbaa !59
  %54 = getelementptr inbounds nuw %struct.Qureg, ptr %53, i32 0, i32 10
  store ptr null, ptr %54, align 8, !tbaa !68
  %55 = load ptr, ptr %4, align 8, !tbaa !59
  %56 = getelementptr inbounds nuw %struct.Qureg, ptr %55, i32 0, i32 11
  store ptr null, ptr %56, align 8, !tbaa !69
  br label %57

57:                                               ; preds = %33, %28
  %58 = load i32, ptr %6, align 4, !tbaa !9
  %59 = load ptr, ptr %5, align 8, !tbaa !4
  call void @QuESTAssert(i32 noundef %58, i32 noundef 86, ptr noundef %59)
  call void @llvm.lifetime.end.p0(i64 4, ptr %6) #7
  ret void
}