; Function Attrs: nounwind uwtable
define void @validateQuregGPUAllocation(ptr noundef captures(none) %0, ptr noundef readonly byval(%struct.QuESTEnv) align 8 captures(none) %1, ptr noundef %2) local_unnamed_addr #3 {
  %4 = getelementptr inbounds nuw i8, ptr %0, i64 72
  %5 = load ptr, ptr %4, align 8, !tbaa !44
  %.not = icmp eq ptr %5, null
  br i1 %.not, label %.thread, label %6

6:                                                ; preds = %3
  %7 = getelementptr inbounds nuw i8, ptr %0, i64 80
  %8 = load ptr, ptr %7, align 8, !tbaa !45
  %.not15 = icmp eq ptr %8, null
  br i1 %.not15, label %.thread, label %9

9:                                                ; preds = %6
  %10 = getelementptr inbounds nuw i8, ptr %0, i64 88
  %11 = load ptr, ptr %10, align 8, !tbaa !46
  %.not16 = icmp eq ptr %11, null
  br i1 %.not16, label %.thread, label %12

12:                                               ; preds = %9
  %13 = getelementptr inbounds nuw i8, ptr %0, i64 96
  %14 = load ptr, ptr %13, align 8, !tbaa !47
  %.not19 = icmp eq ptr %14, null
  br i1 %.not19, label %.thread, label %QuESTAssert.exit

.thread:                                          ; preds = %3, %6, %9, %12
  tail call void @destroyQureg(ptr noundef nonnull byval(%struct.Qureg) align 8 %0, ptr noundef nonnull byval(%struct.QuESTEnv) align 8 %1) #14
  %15 = getelementptr inbounds nuw i8, ptr %0, i64 40
  tail call void @llvm.memset.p0.i64(ptr noundef nonnull align 8 dereferenceable(64) %15, i8 0, i64 64, i1 false)
  tail call void @invalidQuESTInputError(ptr noundef nonnull @.str.88, ptr noundef %2)
  br label %QuESTAssert.exit

QuESTAssert.exit:                                 ; preds = %12, %.thread
  ret void
}